target datalayout = "e-m:e-p270:32:32-p271:32:32-p272:64:64-i64:64-i128:128-f80:128-n8:16:32:64-S128"
target triple = "x86_64-pc-linux-gnu"

%"struct.Luau::CodeGen::IrOp" = type { i32 }

; Function Attrs: mustprogress uwtable
define dso_local void @_ZN4Luau7CodeGen21translateInstNewTableERNS0_9IrBuilderEPKji(ptr noundef nonnull align 8 dereferenceable(752) %0, ptr noundef %1, i32 noundef %2) #0 {
  %4 = alloca ptr, align 8
  %5 = alloca ptr, align 8
  %6 = alloca i32, align 4
  %7 = alloca i32, align 4
  %8 = alloca i32, align 4
  %9 = alloca i32, align 4
  %10 = alloca %"struct.Luau::CodeGen::IrOp", align 4
  %11 = alloca %"struct.Luau::CodeGen::IrOp", align 4
  %12 = alloca %"struct.Luau::CodeGen::IrOp", align 4
  %13 = alloca %"struct.Luau::CodeGen::IrOp", align 4
  %14 = alloca %"struct.Luau::CodeGen::IrOp", align 4
  %15 = alloca %"struct.Luau::CodeGen::IrOp", align 4
  %16 = alloca %"struct.Luau::CodeGen::IrOp", align 4
  %17 = alloca %"struct.Luau::CodeGen::IrOp", align 4
  %18 = alloca %"struct.Luau::CodeGen::IrOp", align 4
  %19 = alloca %"struct.Luau::CodeGen::IrOp", align 4
  %20 = alloca %"struct.Luau::CodeGen::IrOp", align 4
  %21 = alloca %"struct.Luau::CodeGen::IrOp", align 4
  store ptr %0, ptr %4, align 8, !tbaa !4
  store ptr %1, ptr %5, align 8, !tbaa !9
  store i32 %2, ptr %6, align 4, !tbaa !11
  call void @llvm.lifetime.start.p0(i64 4, ptr %7) #13
  %22 = load ptr, ptr %5, align 8, !tbaa !9
  %23 = load i32, ptr %22, align 4, !tbaa !11
  %24 = lshr i32 %23, 8
  %25 = and i32 %24, 255
  store i32 %25, ptr %7, align 4, !tbaa !11
  call void @llvm.lifetime.start.p0(i64 4, ptr %8) #13
  %26 = load ptr, ptr %5, align 8, !tbaa !9
  %27 = load i32, ptr %26, align 4, !tbaa !11
  %28 = lshr i32 %27, 16
  %29 = and i32 %28, 255
  store i32 %29, ptr %8, align 4, !tbaa !11
  call void @llvm.lifetime.start.p0(i64 4, ptr %9) #13
  %30 = load ptr, ptr %5, align 8, !tbaa !9
  %31 = getelementptr inbounds i32, ptr %30, i64 1
  %32 = load i32, ptr %31, align 4, !tbaa !11
  store i32 %32, ptr %9, align 4, !tbaa !11
  %33 = load ptr, ptr %4, align 8, !tbaa !4
  %34 = load ptr, ptr %4, align 8, !tbaa !4
  %35 = load i32, ptr %6, align 4, !tbaa !11
  %36 = add nsw i32 %35, 1
  %37 = call i32 @_ZN4Luau7CodeGen9IrBuilder9constUintEj(ptr noundef nonnull align 8 dereferenceable(752) %34, i32 noundef %36)
  %38 = getelementptr inbounds nuw %"struct.Luau::CodeGen::IrOp", ptr %10, i32 0, i32 0
  store i32 %37, ptr %38, align 4
  %39 = getelementptr inbounds nuw %"struct.Luau::CodeGen::IrOp", ptr %10, i32 0, i32 0
  %40 = load i32, ptr %39, align 4
  %41 = call i32 @_ZN4Luau7CodeGen9IrBuilder4instENS0_5IrCmdENS0_4IrOpE(ptr noundef nonnull align 8 dereferenceable(752) %33, i8 noundef zeroext 98, i32 %40)
  %42 = getelementptr inbounds nuw %"struct.Luau::CodeGen::IrOp", ptr %11, i32 0, i32 0
  store i32 %41, ptr %42, align 4
  call void @llvm.lifetime.start.p0(i64 4, ptr %12) #13
  %43 = load ptr, ptr %4, align 8, !tbaa !4
  %44 = load ptr, ptr %4, align 8, !tbaa !4
  %45 = load i32, ptr %9, align 4, !tbaa !11
  %46 = call i32 @_ZN4Luau7CodeGen9IrBuilder9constUintEj(ptr noundef nonnull align 8 dereferenceable(752) %44, i32 noundef %45)
  %47 = getelementptr inbounds nuw %"struct.Luau::CodeGen::IrOp", ptr %13, i32 0, i32 0
  store i32 %46, ptr %47, align 4
  %48 = load ptr, ptr %4, align 8, !tbaa !4
  %49 = load i32, ptr %8, align 4, !tbaa !11
  %50 = icmp eq i32 %49, 0
  br i1 %50, label %51, label %52

51:                                               ; preds = %3
  br label %56

52:                                               ; preds = %3
  %53 = load i32, ptr %8, align 4, !tbaa !11
  %54 = sub nsw i32 %53, 1
  %55 = shl i32 1, %54
  br label %56

56:                                               ; preds = %52, %51
  %57 = phi i32 [ 0, %51 ], [ %55, %52 ]
  %58 = call i32 @_ZN4Luau7CodeGen9IrBuilder9constUintEj(ptr noundef nonnull align 8 dereferenceable(752) %48, i32 noundef %57)
  %59 = getelementptr inbounds nuw %"struct.Luau::CodeGen::IrOp", ptr %14, i32 0, i32 0
  store i32 %58, ptr %59, align 4
  %60 = getelementptr inbounds nuw %"struct.Luau::CodeGen::IrOp", ptr %13, i32 0, i32 0
  %61 = load i32, ptr %60, align 4
  %62 = getelementptr inbounds nuw %"struct.Luau::CodeGen::IrOp", ptr %14, i32 0, i32 0
  %63 = load i32, ptr %62, align 4
  %64 = call i32 @_ZN4Luau7CodeGen9IrBuilder4instENS0_5IrCmdENS0_4IrOpES3_(ptr noundef nonnull align 8 dereferenceable(752) %43, i8 noundef zeroext 57, i32 %61, i32 %63)
  %65 = getelementptr inbounds nuw %"struct.Luau::CodeGen::IrOp", ptr %12, i32 0, i32 0
  store i32 %64, ptr %65, align 4
  %66 = load ptr, ptr %4, align 8, !tbaa !4
  %67 = load ptr, ptr %4, align 8, !tbaa !4
  %68 = load i32, ptr %7, align 4, !tbaa !11
  %69 = trunc i32 %68 to i8
  %70 = call i32 @_ZN4Luau7CodeGen9IrBuilder5vmRegEh(ptr noundef nonnull align 8 dereferenceable(752) %67, i8 noundef zeroext %69)
  %71 = getelementptr inbounds nuw %"struct.Luau::CodeGen::IrOp", ptr %15, i32 0, i32 0
  store i32 %70, ptr %71, align 4
  call void @llvm.memcpy.p0.p0.i64(ptr align 4 %16, ptr align 4 %12, i64 4, i1 false), !tbaa.struct !112
  %72 = getelementptr inbounds nuw %"struct.Luau::CodeGen::IrOp", ptr %15, i32 0, i32 0
  %73 = load i32, ptr %72, align 4
  %74 = getelementptr inbounds nuw %"struct.Luau::CodeGen::IrOp", ptr %16, i32 0, i32 0
  %75 = load i32, ptr %74, align 4
  %76 = call i32 @_ZN4Luau7CodeGen9IrBuilder4instENS0_5IrCmdENS0_4IrOpES3_(ptr noundef nonnull align 8 dereferenceable(752) %66, i8 noundef zeroext 14, i32 %73, i32 %75)
  %77 = getelementptr inbounds nuw %"struct.Luau::CodeGen::IrOp", ptr %17, i32 0, i32 0
  store i32 %76, ptr %77, align 4
  %78 = load ptr, ptr %4, align 8, !tbaa !4
  %79 = load ptr, ptr %4, align 8, !tbaa !4
  %80 = load i32, ptr %7, align 4, !tbaa !11
  %81 = trunc i32 %80 to i8
  %82 = call i32 @_ZN4Luau7CodeGen9IrBuilder5vmRegEh(ptr noundef nonnull align 8 dereferenceable(752) %79, i8 noundef zeroext %81)
  %83 = getelementptr inbounds nuw %"struct.Luau::CodeGen::IrOp", ptr %18, i32 0, i32 0
  store i32 %82, ptr %83, align 4
  %84 = load ptr, ptr %4, align 8, !tbaa !4
  %85 = call i32 @_ZN4Luau7CodeGen9IrBuilder8constTagEh(ptr noundef nonnull align 8 dereferenceable(752) %84, i8 noundef zeroext 6)
  %86 = getelementptr inbounds nuw %"struct.Luau::CodeGen::IrOp", ptr %19, i32 0, i32 0
  store i32 %85, ptr %86, align 4
  %87 = getelementptr inbounds nuw %"struct.Luau::CodeGen::IrOp", ptr %18, i32 0, i32 0
  %88 = load i32, ptr %87, align 4
  %89 = getelementptr inbounds nuw %"struct.Luau::CodeGen::IrOp", ptr %19, i32 0, i32 0
  %90 = load i32, ptr %89, align 4
  %91 = call i32 @_ZN4Luau7CodeGen9IrBuilder4instENS0_5IrCmdENS0_4IrOpES3_(ptr noundef nonnull align 8 dereferenceable(752) %78, i8 noundef zeroext 12, i32 %88, i32 %90)
  %92 = getelementptr inbounds nuw %"struct.Luau::CodeGen::IrOp", ptr %20, i32 0, i32 0
  store i32 %91, ptr %92, align 4
  %93 = load ptr, ptr %4, align 8, !tbaa !4
  %94 = call i32 @_ZN4Luau7CodeGen9IrBuilder4instENS0_5IrCmdE(ptr noundef nonnull align 8 dereferenceable(752) %93, i8 noundef zeroext 94)
  %95 = getelementptr inbounds nuw %"struct.Luau::CodeGen::IrOp", ptr %21, i32 0, i32 0
  store i32 %94, ptr %95, align 4
  call void @llvm.lifetime.end.p0(i64 4, ptr %12) #13
  call void @llvm.lifetime.end.p0(i64 4, ptr %9) #13
  call void @llvm.lifetime.end.p0(i64 4, ptr %8) #13
  call void @llvm.lifetime.end.p0(i64 4, ptr %7) #13
  ret void
}